Certificate:
    Data:
        Version: 3 (0x2)
        Serial Number:
            44:4c:e8:0a:95:b5:a2:01:5c:fe:9a:92:af:e1:7c:19:7d:21:88:85
        Signature Algorithm: sha256WithRSAEncryption
        Issuer: C = FR, O = Belledonne Communications, OU = flexisip-tester, CN = localhost
        Validity
            Not Before: Apr 13 11:50:49 2022 GMT
            Not After : Mar 20 11:50:49 2122 GMT
        Subject: C = FR, O = Belledonne Communications, OU = flexisip-tester, CN = localhost
        Subject Public Key Info:
            Public Key Algorithm: rsaEncryption
                RSA Public-Key: (2048 bit)
                Modulus:
                    00:95:7d:75:79:e8:48:87:ef:21:d6:b4:53:e8:c9:
                    52:06:b5:fe:f5:36:b7:1b:3c:06:ea:b1:e4:37:71:
                    9a:5b:fe:0a:fb:a0:ac:5d:36:c6:9c:57:9d:8d:e6:
                    35:b6:89:11:25:1d:98:ac:b6:33:f2:04:96:44:b5:
                    d8:5a:6f:d9:4d:ec:f1:a9:a0:bc:87:67:9b:c1:c0:
                    99:c3:dd:21:54:04:82:1f:6d:6b:b5:a4:0f:db:e1:
                    ac:57:37:2d:01:98:88:30:da:b6:a7:7a:e3:e4:b5:
                    02:2e:81:12:b5:50:4e:33:35:54:f1:e2:d7:bb:f6:
                    7a:c0:79:0d:18:d3:13:36:07:d8:5c:23:ab:52:2d:
                    41:51:ef:17:b7:12:89:d5:25:98:9a:5b:a8:de:c6:
                    fc:58:20:67:be:85:6f:fb:52:00:22:23:24:be:3b:
                    70:82:d8:91:73:f2:c1:38:ba:c5:31:a8:94:89:80:
                    85:e4:35:f1:b3:f4:79:f5:c2:d0:b7:96:93:22:3c:
                    ba:cf:37:8d:4a:17:ab:62:92:62:84:d9:89:ea:57:
                    13:9d:d2:f8:8c:69:91:43:4c:91:46:47:8d:5e:a3:
                    78:c9:c6:11:44:44:cd:a9:3e:d9:c9:29:0c:27:b5:
                    02:31:06:e0:03:af:98:5d:cf:05:1b:81:1b:0e:8d:
                    f0:33
                Exponent: 65537 (0x10001)
        X509v3 extensions:
            X509v3 Basic Constraints: 
                CA:FALSE
            Netscape Comment: 
                OpenSSL Generated Certificate
            X509v3 Subject Key Identifier: 
                41:54:45:57:19:65:19:25:57:12:F3:49:71:98:62:7C:3E:23:09:2D
            X509v3 Authority Key Identifier: 
                keyid:41:54:45:57:19:65:19:25:57:12:F3:49:71:98:62:7C:3E:23:09:2D

    Signature Algorithm: sha256WithRSAEncryption
         16:20:b3:58:c3:0a:f9:17:57:8c:03:db:ce:84:63:53:ae:51:
         b8:6d:40:0c:94:e9:58:ac:bb:07:a4:98:aa:39:fa:ab:4e:4a:
         29:83:1b:ac:72:e1:86:fa:de:01:8c:04:39:54:8d:56:85:c7:
         ad:19:2f:be:f5:32:e3:11:d6:c7:86:5d:0f:1f:fc:fe:80:6b:
         1d:d3:10:59:c3:3e:0e:52:cc:34:15:e9:0d:d5:a2:b2:01:9f:
         a0:2b:8f:76:f6:cb:1f:84:5d:dd:38:dd:c5:15:09:52:cf:d5:
         a3:91:87:65:8b:12:f1:29:30:34:b6:fe:6a:f2:b4:68:c3:4e:
         fe:6a:15:53:83:83:54:04:9a:e7:fe:8d:c2:1f:ed:e9:ec:d1:
         d4:72:98:78:e9:f0:1e:76:ba:d9:d4:65:ce:d0:0b:63:4a:2c:
         81:95:ec:13:b6:a9:37:90:95:76:f8:37:5d:77:a0:54:80:6b:
         e9:79:74:2b:05:0c:0d:2d:a3:ea:bf:45:86:86:b0:b0:6d:b5:
         79:c2:f8:90:99:1e:77:82:dd:da:b4:9c:92:b9:b3:0b:5b:6b:
         0b:bc:e8:f7:9a:0a:74:d6:0b:1b:c7:51:ca:5e:9b:b3:1f:2d:
         a9:a4:4c:59:06:5a:85:3e:f2:c2:a4:2a:95:ba:11:18:16:e1:
         59:39:ff:6a
-----BEGIN CERTIFICATE-----
MIIDyTCCArGgAwIBAgIUREzoCpW1ogFc/pqSr+F8GX0hiIUwDQYJKoZIhvcNAQEL
BQAwXzELMAkGA1UEBhMCRlIxIjAgBgNVBAoMGUJlbGxlZG9ubmUgQ29tbXVuaWNh
dGlvbnMxGDAWBgNVBAsMD2ZsZXhpc2lwLXRlc3RlcjESMBAGA1UEAwwJbG9jYWxo
b3N0MCAXDTIyMDQxMzExNTA0OVoYDzIxMjIwMzIwMTE1MDQ5WjBfMQswCQYDVQQG
EwJGUjEiMCAGA1UECgwZQmVsbGVkb25uZSBDb21tdW5pY2F0aW9uczEYMBYGA1UE
CwwPZmxleGlzaXAtdGVzdGVyMRIwEAYDVQQDDAlsb2NhbGhvc3QwggEiMA0GCSqG
SIb3DQEBAQUAA4IBDwAwggEKAoIBAQCVfXV56EiH7yHWtFPoyVIGtf71NrcbPAbq
seQ3cZpb/gr7oKxdNsacV52N5jW2iRElHZistjPyBJZEtdhab9lN7PGpoLyHZ5vB
wJnD3SFUBIIfbWu1pA/b4axXNy0BmIgw2raneuPktQIugRK1UE4zNVTx4te79nrA
eQ0Y0xM2B9hcI6tSLUFR7xe3EonVJZiaW6jexvxYIGe+hW/7UgAiIyS+O3CC2JFz
8sE4usUxqJSJgIXkNfGz9Hn1wtC3lpMiPLrPN41KF6tikmKE2YnqVxOd0viMaZFD
TJFGR41eo3jJxhFERM2pPtnJKQwntQIxBuADr5hdzwUbgRsOjfAzAgMBAAGjezB5
MAkGA1UdEwQCMAAwLAYJYIZIAYb4QgENBB8WHU9wZW5TU0wgR2VuZXJhdGVkIENl
cnRpZmljYXRlMB0GA1UdDgQWBBRBVEVXGWUZJVcS80lxmGJ8PiMJLTAfBgNVHSME
GDAWgBRBVEVXGWUZJVcS80lxmGJ8PiMJLTANBgkqhkiG9w0BAQsFAAOCAQEAFiCz
WMMK+RdXjAPbzoRjU65RuG1ADJTpWKy7B6SYqjn6q05KKYMbrHLhhvreAYwEOVSN
VoXHrRkvvvUy4xHWx4ZdDx/8/oBrHdMQWcM+DlLMNBXpDdWisgGfoCuPdvbLH4Rd
3TjdxRUJUs/Vo5GHZYsS8SkwNLb+avK0aMNO/moVU4ODVASa5/6Nwh/t6ezR1HKY
eOnwHna62dRlztALY0osgZXsE7apN5CVdvg3XXegVIBr6Xl0KwUMDS2j6r9Fhoaw
sG21ecL4kJked4Ld2rSckrmzC1trC7zo95oKdNYLG8dRyl6bsx8tqaRMWQZahT7y
wqQqlboRGBbhWTn/ag==
-----END CERTIFICATE-----
-----BEGIN RSA PRIVATE KEY-----
MIIEowIBAAKCAQEAlX11eehIh+8h1rRT6MlSBrX+9Ta3GzwG6rHkN3GaW/4K+6Cs
XTbGnFedjeY1tokRJR2YrLYz8gSWRLXYWm/ZTezxqaC8h2ebwcCZw90hVASCH21r
taQP2+GsVzctAZiIMNq2p3rj5LUCLoEStVBOMzVU8eLXu/Z6wHkNGNMTNgfYXCOr
Ui1BUe8XtxKJ1SWYmluo3sb8WCBnvoVv+1IAIiMkvjtwgtiRc/LBOLrFMaiUiYCF
5DXxs/R59cLQt5aTIjy6zzeNSherYpJihNmJ6lcTndL4jGmRQ0yRRkeNXqN4ycYR
RETNqT7ZySkMJ7UCMQbgA6+YXc8FG4EbDo3wMwIDAQABAoIBAAkdaThRrXp8XjfV
LviWreWy2yTgfTGv60wMJLostxi82LaXCWt1l46Y2QZ57vR+TwlQUKrXQTuUhAUU
gWiiQUG7HNEW9+fZrWmW8Mk8hne0/qoj5dlhc4YYsIVw29GpF0TDUTfNCnA7iTKE
tDtR9jKxIcjN6BGR6dIqj13gIN++atr7IHT5e4frIjKCXH8CuE83QRMASAJcXUI9
/Byq6YNwrgOkDdxJkEb5gU4hSFAyxvwYfR7dDKR/sunrQr8qGnTno2OxHNUfT56t
xkjlDq7vC9/TF4dxm9u+mig/sabB339axb4IfrBMj154AxqcRJ+IH1KM2m3yNaTJ
FVTCr6ECgYEAxoECRqhrZaeeTk5Hd3KqkGkokZDjlSBHwCMPuLPxGWmXjTAcZKWB
JkzV5hHG5XhM3o3Pztej610JDwKvj1gyXcjkgiNHtfffG4DhzkjRK21cgL3PeIPp
Z/kyk/iPxHobmPhWvnbPPmDFMlSPqRrgcwO1QZb+iTBphi0tXdf6wUUCgYEAwMoX
LdFaTFQK8xLpX6+p+G/BCdWeBWpOC2FWjuBtD9PS/oy1HcfaVE++R5JqG5fY0PZX
t1jLts0IJ/aGA/jVoEV6inXVq1uxd6qBXby3KbMxvsRne0IV3BHS4nhk5GlNTaxj
dyOsm8nuyNS8IxMFTAz7lxQEBgdt+oLH8aCp9xcCgYA5RGC+t7n8IsZl+uldSYRx
kxT0IeO2UxDAGp1fgPIujar+PYIDe0fuH76Z2EkUTIeIsUrhdo7AyR9i6Dhz11L4
gYuDC+CVW8RO7/i1BYbqy2sjbR8cupmsuFTiIZSAb2Xk1MhZvHb/nPVnFsQ3Whyk
sc4p9QDL3V6kKgZri3K5LQKBgQCURRisiT08RMqjBWFs0OoVAsXg7WR537ckM3lh
qyLVsGCumsLUo5a7jxTVcLqgfBkpJLxzaxxJe8iRC50oQuDxQV4sTNHG119WnFCg
KfpoXMOeZuj7N+kd9qtMt7FIpd/pI/LfdxVSP2yhElObWg6R3c5E9ATgKiigKKLj
p1/wgwKBgFyuHgE7X135DiGLnvDmFQWEmci7bTRMpHhfiIZ8kqrK0fzkEotucWst
VLiUivc7L2NDbK1x3FpByhZvAZlKFYIlDN45xQwH4Qt7cyVzQkZtFnbMjL3lpXQS
I8Q1Z13U0riDF/ihCWAzGkbJ/U8UIJOwZVgwiuQg+2OUf3N6htPD
-----END RSA PRIVATE KEY-----
